target datalayout = "e-m:e-p270:32:32-p271:32:32-p272:64:64-i64:64-i128:128-f80:128-n8:16:32:64-S128"
target triple = "x86_64-pc-linux-gnu"

%"class.google::protobuf::io::CodedInputStream" = type { ptr, ptr, ptr, i32, i32, i32, i8, i8, i32, i32, i32, i32, i32, ptr, ptr }

; Function Attrs: inlinehint mustprogress nounwind uwtable
define linkonce_odr noundef i32 @_ZNK6google8protobuf2io16CodedInputStream10BufferSizeEv(ptr noundef nonnull align 8 dereferenceable(80) %0) #8 comdat align 2 {
  %2 = alloca ptr, align 8
  store ptr %0, ptr %2, align 8, !tbaa !3
  %3 = load ptr, ptr %2, align 8
  %4 = getelementptr inbounds nuw %"class.google::protobuf::io::CodedInputStream", ptr %3, i32 0, i32 1
  %5 = load ptr, ptr %4, align 8, !tbaa !23
  %6 = getelementptr inbounds nuw %"class.google::protobuf::io::CodedInputStream", ptr %3, i32 0, i32 0
  %7 = load ptr, ptr %6, align 8, !tbaa !22
  %8 = ptrtoint ptr %5 to i64
  %9 = ptrtoint ptr %7 to i64
  %10 = sub i64 %8, %9
  %11 = trunc i64 %10 to i32
  ret i32 %11
}

; Function Attrs: mustprogress uwtable
define void @_ZN6google8protobuf2io16CodedInputStream28BackUpInputToCurrentPositionEv(ptr noundef nonnull align 8 dereferenceable(80) %0) #5 align 2 {
  %2 = alloca ptr, align 8
  %3 = alloca i32, align 4
  store ptr %0, ptr %2, align 8, !tbaa !3
  %4 = load ptr, ptr %2, align 8
  call void @llvm.lifetime.start.p0(i64 4, ptr %3) #3
  %5 = call noundef i32 @_ZNK6google8protobuf2io16CodedInputStream10BufferSizeEv(ptr noundef nonnull align 8 dereferenceable(80) %4)
  %6 = getelementptr inbounds nuw %"class.google::protobuf::io::CodedInputStream", ptr %4, i32 0, i32 9
  %7 = load i32, ptr %6, align 4, !tbaa !16
  %8 = add nsw i32 %5, %7
  %9 = getelementptr inbounds nuw %"class.google::protobuf::io::CodedInputStream", ptr %4, i32 0, i32 4
  %10 = load i32, ptr %9, align 4, !tbaa !17
  %11 = add nsw i32 %8, %10
  store i32 %11, ptr %3, align 4, !tbaa !18
  %12 = load i32, ptr %3, align 4, !tbaa !18
  %13 = icmp sgt i32 %12, 0
  br i1 %13, label %14, label %33

14:                                               ; preds = %1
  %15 = getelementptr inbounds nuw %"class.google::protobuf::io::CodedInputStream", ptr %4, i32 0, i32 2
  %16 = load ptr, ptr %15, align 8, !tbaa !8
  %17 = load i32, ptr %3, align 4, !tbaa !18
  %18 = load ptr, ptr %16, align 8, !tbaa !19
  %19 = getelementptr inbounds ptr, ptr %18, i64 3
  %20 = load ptr, ptr %19, align 8
  call void %20(ptr noundef nonnull align 8 dereferenceable(8) %16, i32 noundef %17)
  %21 = call noundef i32 @_ZNK6google8protobuf2io16CodedInputStream10BufferSizeEv(ptr noundef nonnull align 8 dereferenceable(80) %4)
  %22 = getelementptr inbounds nuw %"class.google::protobuf::io::CodedInputStream", ptr %4, i32 0, i32 9
  %23 = load i32, ptr %22, align 4, !tbaa !16
  %24 = add nsw i32 %21, %23
  %25 = getelementptr inbounds nuw %"class.google::protobuf::io::CodedInputStream", ptr %4, i32 0, i32 3
  %26 = load i32, ptr %25, align 8, !tbaa !21
  %27 = sub nsw i32 %26, %24
  store i32 %27, ptr %25, align 8, !tbaa !21
  %28 = getelementptr inbounds nuw %"class.google::protobuf::io::CodedInputStream", ptr %4, i32 0, i32 0
  %29 = load ptr, ptr %28, align 8, !tbaa !22
  %30 = getelementptr inbounds nuw %"class.google::protobuf::io::CodedInputStream", ptr %4, i32 0, i32 1
  store ptr %29, ptr %30, align 8, !tbaa !23
  %31 = getelementptr inbounds nuw %"class.google::protobuf::io::CodedInputStream", ptr %4, i32 0, i32 9
  store i32 0, ptr %31, align 4, !tbaa !16
  %32 = getelementptr inbounds nuw %"class.google::protobuf::io::CodedInputStream", ptr %4, i32 0, i32 4
  store i32 0, ptr %32, align 4, !tbaa !17
  br label %33

33:                                               ; preds = %14, %1
  call void @llvm.lifetime.end.p0(i64 4, ptr %3) #3
  ret void
}

; Function Attrs: mustprogress nounwind uwtable
define void @_ZN6google8protobuf2io16CodedInputStreamD2Ev(ptr noundef nonnull align 8 dereferenceable(80) %0) unnamed_addr #4 align 2 personality ptr @__gxx_personality_v0 {
  %2 = alloca ptr, align 8
  store ptr %0, ptr %2, align 8, !tbaa !3
  %3 = load ptr, ptr %2, align 8
  %4 = getelementptr inbounds nuw %"class.google::protobuf::io::CodedInputStream", ptr %3, i32 0, i32 2
  %5 = load ptr, ptr %4, align 8, !tbaa !8
  %6 = icmp ne ptr %5, null
  br i1 %6, label %7, label %9

7:                                                ; preds = %1
  invoke void @_ZN6google8protobuf2io16CodedInputStream28BackUpInputToCurrentPositionEv(ptr noundef nonnull align 8 dereferenceable(80) %3)
          to label %8 unwind label %10

8:                                                ; preds = %7
  br label %9

9:                                                ; preds = %8, %1
  ret void

10:                                               ; preds = %7
  %11 = landingpad { ptr, i32 }
          catch ptr null
  %12 = extractvalue { ptr, i32 } %11, 0
  call void @__clang_call_terminate(ptr %12) #15
  unreachable
}