; Function Attrs: mustprogress nounwind uwtable
define void @_ZN6google8protobuf2io16CodedInputStreamD2Ev(ptr noundef nonnull align 8 captures(none) dereferenceable(80) %0) unnamed_addr #3 align 2 personality ptr @__gxx_personality_v0 {
  %2 = getelementptr inbounds nuw i8, ptr %0, i64 16
  %3 = load ptr, ptr %2, align 8, !tbaa !3
  %.not = icmp eq ptr %3, null
  br i1 %.not, label %_ZN6google8protobuf2io16CodedInputStream28BackUpInputToCurrentPositionEv.exit, label %4

4:                                                ; preds = %1
  %5 = getelementptr inbounds nuw i8, ptr %0, i64 8
  %6 = load ptr, ptr %5, align 8, !tbaa !14
  %7 = load ptr, ptr %0, align 8, !tbaa !15
  %8 = ptrtoint ptr %6 to i64
  %9 = ptrtoint ptr %7 to i64
  %10 = sub i64 %8, %9
  %11 = trunc i64 %10 to i32
  %12 = getelementptr inbounds nuw i8, ptr %0, i64 44
  %13 = load i32, ptr %12, align 4, !tbaa !16
  %14 = getelementptr inbounds nuw i8, ptr %0, i64 28
  %15 = load i32, ptr %14, align 4, !tbaa !17
  %16 = add i32 %15, %13
  %17 = add i32 %16, %11
  %18 = icmp sgt i32 %17, 0
  br i1 %18, label %19, label %_ZN6google8protobuf2io16CodedInputStream28BackUpInputToCurrentPositionEv.exit

19:                                               ; preds = %4
  %20 = load ptr, ptr %3, align 8, !tbaa !18
  %21 = getelementptr inbounds nuw i8, ptr %20, i64 24
  %22 = load ptr, ptr %21, align 8
  invoke void %22(ptr noundef nonnull align 8 dereferenceable(8) %3, i32 noundef %17)
          to label %.noexc unwind label %31

.noexc:                                           ; preds = %19
  %23 = load ptr, ptr %5, align 8, !tbaa !14
  %24 = load ptr, ptr %0, align 8, !tbaa !15
  %25 = ptrtoint ptr %23 to i64
  %26 = ptrtoint ptr %24 to i64
  %.neg4.i = sub i64 %26, %25
  %.neg5.i = trunc i64 %.neg4.i to i32
  %27 = load i32, ptr %12, align 4, !tbaa !16
  %28 = getelementptr inbounds nuw i8, ptr %0, i64 24
  %29 = load i32, ptr %28, align 8, !tbaa !20
  %.neg3.i = sub i32 %29, %27
  %30 = add i32 %.neg3.i, %.neg5.i
  store i32 %30, ptr %28, align 8, !tbaa !20
  store ptr %24, ptr %5, align 8, !tbaa !14
  store i32 0, ptr %12, align 4, !tbaa !16
  store i32 0, ptr %14, align 4, !tbaa !17
  br label %_ZN6google8protobuf2io16CodedInputStream28BackUpInputToCurrentPositionEv.exit

_ZN6google8protobuf2io16CodedInputStream28BackUpInputToCurrentPositionEv.exit: ; preds = %.noexc, %4, %1
  ret void

31:                                               ; preds = %19
  %32 = landingpad { ptr, i32 }
          catch ptr null
  %33 = extractvalue { ptr, i32 } %32, 0
  tail call void @__clang_call_terminate(ptr %33) #16
  unreachable
}